(dp1
(Vjob51
S'retry'
tp2
ccopy_reg
_reconstructor
p3
(cpyspider.libs.counter
TimebaseAverageWindowCounter
p4
c__builtin__
object
p5
NtRp6
(dp7
S'_first_data_time'
p8
F1511247879.900152
sS'window_size'
p9
F9.9721966882546749
sS'times'
p10
ccollections
deque
p11
((lp12
F1511247879.900152
aF1511248068.7757249
aF1511248231.267035
aF1511248517.9494121
aF1511248741.5120931
aF1511249073.607728
aI600
tRp13
sS'window_interval'
p14
I144
sS'values'
p15
g11
((lp16
I6
aI10
aI8
aI6
aI2
aI2
aI600
tRp17
sS'cache_value'
p18
I0
sS'max_window_size'
p19
I600
sS'cache_start'
p20
Nsbs(S'job51'
S'pending'
tp21
g3
(g4
g5
NtRp22
(dp23
g8
F1511247832.28299
sg9
F10.302871450781822
sg10
g11
((lp24
F1511247832.28299
aF1511247985.242161
aF1511248172.025743
aF1511248329.3124559
aF1511248481.7544811
aF1511248634.2807579
aF1511248787.018513
aF1511248977.904423
aF1511249162.25646
aI600
tRp25
sg14
I144
sg15
g11
((lp26
I188
aI183
aI150
aI152
aI150
aI152
aI191
aI183
aI49
aI600
tRp27
sg18
I0
sg19
I600
sg20
Nsbs(Vjob51
S'success'
tp28
g3
(g4
g5
NtRp29
(dp30
g8
F1511247832.578033
sg9
F10.300822569264305
sg10
g11
((lp31
F1511247832.578033
aF1511247976.9667859
aF1511248121.2780631
aF1511248265.592082
aF1511248410.1781061
aF1511248554.4033079
aF1511248698.8258109
aF1511248843.376667
aF1511248987.910188
aF1511249132.7334211
aI600
tRp32
sg14
I144
sg15
g11
((lp33
I142
aI138
aI133
aI142
aI140
aI143
aI142
aI145
aI143
aI62
aI600
tRp34
sg18
I0
sg19
I600
sg20
Nsbs.