(dp1
(Vjob51
S'failed'
tp2
ccopy_reg
_reconstructor
p3
(cpyspider.libs.counter
TotalCounter
p4
c__builtin__
object
p5
NtRp6
(dp7
S'cnt'
p8
I0
sbs(Vjob51
p9
S'success'
tp10
g3
(g4
g5
NtRp11
(dp12
g8
I1330
sbs(g9
S'pending'
tp13
g3
(g4
g5
NtRp14
(dp15
g8
I68
sbs.