(dp1
(Vjob51
S'retry'
tp2
ccopy_reg
_reconstructor
p3
(cpyspider.libs.counter
TimebaseAverageWindowCounter
p4
c__builtin__
object
p5
NtRp6
(dp7
S'_first_data_time'
p8
F1511247879.9001479
sS'window_size'
p9
F23.933271582921346
sS'times'
p10
ccollections
deque
p11
((lp12
F1511247879.9001479
aF1511247947.797328
aF1511248068.775723
aF1511248147.6109531
aF1511248231.2670331
aF1511248296.9265189
aF1511248517.949394
aF1511248741.5120909
aF1511249073.6077261
aI60
tRp13
sS'window_interval'
p14
I60
sS'values'
p15
g11
((lp16
I2
aI4
aI4
aI6
aI7
aI1
aI6
aI2
aI2
aI60
tRp17
sS'cache_value'
p18
I0
sS'max_window_size'
p19
I60
sS'cache_start'
p20
Nsbs(S'job51'
S'pending'
tp21
g3
(g4
g5
NtRp22
(dp23
g8
F1511247832.2829609
sg9
F24.72689145008723
sg10
g11
((lp24
F1511247832.2829609
aF1511247985.2421589
aF1511248071.0111799
aF1511248172.0257411
aF1511248274.7788551
aF1511248379.997082
aF1511248481.7544789
aF1511248583.876709
aF1511248684.9203479
aF1511248787.0185111
aF1511248875.8824241
aF1511248977.9044211
aF1511249046.668489
aF1511249118.6164119
aI60
tRp25
sg14
I60
sg15
g11
((lp26
I188
aI84
aI99
aI99
aI102
aI101
aI99
aI102
aI101
aI89
aI102
aI68
aI71
aI93
aI60
tRp27
sg18
I0
sg19
I60
sg20
Nsbs(Vjob51
S'success'
tp28
g3
(g4
g5
NtRp29
(dp30
g8
F1511247832.5780189
sg9
F24.721973900000254
sg10
g11
((lp31
F1511247832.5780189
aF1511247893.1144049
aF1511247953.670774
aF1511248014.28457
aF1511248074.8397651
aF1511248135.5015669
aF1511248195.9539821
aF1511248257.620832
aF1511248318.213515
aF1511248378.35799
aF1511248438.947156
aF1511248499.693413
aF1511248560.3565669
aF1511248621.105278
aF1511248681.727282
aF1511248742.8224039
aF1511248802.958282
aF1511248863.565326
aF1511248924.1336541
aF1511248984.7866371
aF1511249045.550451
aF1511249106.208451
aF1511249167.090925
aI60
tRp32
sg14
I60
sg15
g11
((lp33
I61
aI59
aI57
aI60
aI57
aI57
aI56
aI55
aI61
aI61
aI61
aI56
aI59
aI61
aI59
aI60
aI60
aI61
aI61
aI60
aI59
aI61
aI28
aI60
tRp34
sg18
I0
sg19
I60
sg20
Nsbs.